target datalayout = "e-m:e-p270:32:32-p271:32:32-p272:64:64-i64:64-i128:128-f80:128-n8:16:32:64-S128"
target triple = "x86_64-pc-linux-gnu"

%struct.G1HeapRegionAttr = type { i8, i8, i8 }

@g_assert_poison = external global ptr, align 8
@.str = private unnamed_addr constant [40 x i8] c"src/hotspot/share/gc/g1/g1Allocator.cpp\00", align 1

; Function Attrs: mustprogress nounwind uwtable
define linkonce_odr hidden noundef signext i8 @_ZNK16G1HeapRegionAttr4typeEv(ptr noundef nonnull align 1 dereferenceable(3) %0) #1 comdat align 2 {
  %2 = alloca ptr, align 8
  store ptr %0, ptr %2, align 8
  %3 = load ptr, ptr %2, align 8
  %4 = getelementptr inbounds %struct.G1HeapRegionAttr, ptr %3, i32 0, i32 1
  %5 = load i8, ptr %4, align 1
  ret i8 %5
}

; Function Attrs: mustprogress nounwind uwtable
define hidden noundef ptr @_ZN11G1Allocator22par_allocate_during_gcE16G1HeapRegionAttrmmPmj(ptr noundef nonnull align 8 dereferenceable(120) %0, i24 %1, i64 noundef %2, i64 noundef %3, ptr noundef %4, i32 noundef %5) #1 align 2 {
  %7 = alloca ptr, align 8
  %8 = alloca %struct.G1HeapRegionAttr, align 1
  %9 = alloca i24, align 4
  %10 = alloca ptr, align 8
  %11 = alloca i64, align 8
  %12 = alloca i64, align 8
  %13 = alloca ptr, align 8
  %14 = alloca i32, align 4
  store i24 %1, ptr %9, align 4
  call void @llvm.memcpy.p0.p0.i64(ptr align 1 %8, ptr align 4 %9, i64 3, i1 false)
  store ptr %0, ptr %10, align 8
  store i64 %2, ptr %11, align 8
  store i64 %3, ptr %12, align 8
  store ptr %4, ptr %13, align 8
  store i32 %5, ptr %14, align 4
  %15 = load ptr, ptr %10, align 8
  %16 = call noundef signext i8 @_ZNK16G1HeapRegionAttr4typeEv(ptr noundef nonnull align 1 dereferenceable(3) %8)
  %17 = sext i8 %16 to i32
  switch i32 %17, label %29 [
    i32 0, label %18
    i32 1, label %24
  ]

18:                                               ; preds = %6
  %19 = load i64, ptr %11, align 8
  %20 = load i64, ptr %12, align 8
  %21 = load ptr, ptr %13, align 8
  %22 = load i32, ptr %14, align 4
  %23 = call noundef ptr @_ZN11G1Allocator27survivor_attempt_allocationEmmPmj(ptr noundef nonnull align 8 dereferenceable(120) %15, i64 noundef %19, i64 noundef %20, ptr noundef %21, i32 noundef %22)
  store ptr %23, ptr %7, align 8
  br label %33

24:                                               ; preds = %6
  %25 = load i64, ptr %11, align 8
  %26 = load i64, ptr %12, align 8
  %27 = load ptr, ptr %13, align 8
  %28 = call noundef ptr @_ZN11G1Allocator22old_attempt_allocationEmmPm(ptr noundef nonnull align 8 dereferenceable(120) %15, i64 noundef %25, i64 noundef %26, ptr noundef %27)
  store ptr %28, ptr %7, align 8
  br label %33

29:                                               ; preds = %6
  br label %30

30:                                               ; preds = %29
  %31 = load ptr, ptr @g_assert_poison, align 8
  store i8 88, ptr %31, align 1
  call void @_Z28report_should_not_reach_herePKci(ptr noundef @.str, i32 noundef 237) #9
  unreachable

32:                                               ; No predecessors!
  store ptr null, ptr %7, align 8
  br label %33

33:                                               ; preds = %32, %24, %18
  %34 = load ptr, ptr %7, align 8
  ret ptr %34
}

; Function Attrs: mustprogress nounwind uwtable
define hidden noundef ptr @_ZN11G1Allocator22par_allocate_during_gcE16G1HeapRegionAttrmj(ptr noundef nonnull align 8 dereferenceable(120) %0, i24 %1, i64 noundef %2, i32 noundef %3) #1 align 2 {
  %5 = alloca %struct.G1HeapRegionAttr, align 1
  %6 = alloca i24, align 4
  %7 = alloca ptr, align 8
  %8 = alloca i64, align 8
  %9 = alloca i32, align 4
  %10 = alloca i64, align 8
  %11 = alloca ptr, align 8
  %12 = alloca %struct.G1HeapRegionAttr, align 1
  %13 = alloca i24, align 4
  store i24 %1, ptr %6, align 4
  call void @llvm.memcpy.p0.p0.i64(ptr align 1 %5, ptr align 4 %6, i64 3, i1 false)
  store ptr %0, ptr %7, align 8
  store i64 %2, ptr %8, align 8
  store i32 %3, ptr %9, align 4
  %14 = load ptr, ptr %7, align 8
  store i64 0, ptr %10, align 8
  call void @llvm.memcpy.p0.p0.i64(ptr align 1 %12, ptr align 1 %5, i64 3, i1 false)
  %15 = load i64, ptr %8, align 8
  %16 = load i64, ptr %8, align 8
  %17 = load i32, ptr %9, align 4
  call void @llvm.memcpy.p0.p0.i64(ptr align 4 %13, ptr align 1 %12, i64 3, i1 false)
  %18 = load i24, ptr %13, align 4
  %19 = call noundef ptr @_ZN11G1Allocator22par_allocate_during_gcE16G1HeapRegionAttrmmPmj(ptr noundef nonnull align 8 dereferenceable(120) %14, i24 %18, i64 noundef %15, i64 noundef %16, ptr noundef %10, i32 noundef %17)
  store ptr %19, ptr %11, align 8
  %20 = load ptr, ptr %11, align 8
  ret ptr %20
}