; Function Attrs: mustprogress nounwind uwtable
define hidden noundef ptr @_ZN11G1Allocator22par_allocate_during_gcE16G1HeapRegionAttrmj(ptr noundef nonnull align 8 dereferenceable(120) %0, i24 %1, i64 noundef %2, i32 noundef %3) local_unnamed_addr #0 align 2 {
  %5 = alloca i64, align 8
  store i64 0, ptr %5, align 8
  %.sroa.1.0.extract.shift.i = lshr i24 %1, 8
  %.sroa.1.0.extract.trunc.i = trunc i24 %.sroa.1.0.extract.shift.i to i8
  switch i8 %.sroa.1.0.extract.trunc.i, label %10 [
    i8 0, label %6
    i8 1, label %8
  ]

6:                                                ; preds = %4
  %7 = call noundef ptr @_ZN11G1Allocator27survivor_attempt_allocationEmmPmj(ptr noundef nonnull align 8 dereferenceable(120) %0, i64 noundef %2, i64 noundef %2, ptr noundef nonnull %5, i32 noundef %3)
  br label %_ZN11G1Allocator22par_allocate_during_gcE16G1HeapRegionAttrmmPmj.exit

8:                                                ; preds = %4
  %9 = call noundef ptr @_ZN11G1Allocator22old_attempt_allocationEmmPm(ptr noundef nonnull align 8 dereferenceable(120) %0, i64 noundef %2, i64 noundef %2, ptr noundef nonnull %5)
  br label %_ZN11G1Allocator22par_allocate_during_gcE16G1HeapRegionAttrmmPmj.exit

10:                                               ; preds = %4
  %11 = load ptr, ptr @g_assert_poison, align 8
  store i8 88, ptr %11, align 1
  tail call void @_Z28report_should_not_reach_herePKci(ptr noundef nonnull @.str, i32 noundef 237) #16
  unreachable

_ZN11G1Allocator22par_allocate_during_gcE16G1HeapRegionAttrmmPmj.exit: ; preds = %6, %8
  %.0.i = phi ptr [ %9, %8 ], [ %7, %6 ]
  ret ptr %.0.i
}